target datalayout = "e-m:e-p270:32:32-p271:32:32-p272:64:64-i64:64-i128:128-f80:128-n8:16:32:64-S128"
target triple = "x86_64-pc-linux-gnu"

%struct.raw_mutex_entry = type { ptr, %struct._PySemaphore }
%struct._PySemaphore = type { %union.sem_t }
%union.sem_t = type { i64, [24 x i8] }
%struct._PyRawMutex = type { i64 }

@__func__._PyRawMutex_UnlockSlow = private unnamed_addr constant [23 x i8] c"_PyRawMutex_UnlockSlow\00", align 1
@.str = private unnamed_addr constant [35 x i8] c"unlocking mutex that is not locked\00", align 1

; Function Attrs: inlinehint nounwind uwtable
define internal i32 @_Py_atomic_compare_exchange_uintptr(ptr noundef %0, ptr noundef %1, i64 noundef %2) #2 {
  %4 = alloca ptr, align 8
  %5 = alloca ptr, align 8
  %6 = alloca i64, align 8
  %7 = alloca i64, align 8
  %8 = alloca i8, align 1
  store ptr %0, ptr %4, align 8, !tbaa !30
  store ptr %1, ptr %5, align 8, !tbaa !30
  store i64 %2, ptr %6, align 8, !tbaa !9
  %9 = load ptr, ptr %4, align 8, !tbaa !30
  %10 = load ptr, ptr %5, align 8, !tbaa !30
  %11 = load i64, ptr %6, align 8, !tbaa !9
  store i64 %11, ptr %7, align 8, !tbaa !9
  %12 = load i64, ptr %10, align 8
  %13 = load i64, ptr %7, align 8
  %14 = cmpxchg ptr %9, i64 %12, i64 %13 seq_cst seq_cst, align 8
  %15 = extractvalue { i64, i1 } %14, 0
  %16 = extractvalue { i64, i1 } %14, 1
  br i1 %16, label %18, label %17

17:                                               ; preds = %3
  store i64 %15, ptr %10, align 8
  br label %18

18:                                               ; preds = %17, %3
  %19 = zext i1 %16 to i8
  store i8 %19, ptr %8, align 1, !tbaa !19
  %20 = load i8, ptr %8, align 1, !tbaa !19, !range !21, !noundef !22
  %21 = trunc i8 %20 to i1
  %22 = zext i1 %21 to i32
  ret i32 %22
}

; Function Attrs: inlinehint nounwind uwtable
define internal i64 @_Py_atomic_load_uintptr(ptr noundef %0) #2 {
  %2 = alloca ptr, align 8
  %3 = alloca i64, align 8
  store ptr %0, ptr %2, align 8, !tbaa !30
  %4 = load ptr, ptr %2, align 8, !tbaa !30
  %5 = load atomic i64, ptr %4 seq_cst, align 8
  store i64 %5, ptr %3, align 8
  %6 = load i64, ptr %3, align 8, !tbaa !9
  ret i64 %6
}

; Function Attrs: nounwind uwtable
define hidden void @_PyRawMutex_UnlockSlow(ptr noundef %0) #0 {
  %2 = alloca ptr, align 8
  %3 = alloca i64, align 8
  %4 = alloca ptr, align 8
  %5 = alloca i64, align 8
  %6 = alloca i32, align 4
  store ptr %0, ptr %2, align 8, !tbaa !25
  call void @llvm.lifetime.start.p0(i64 8, ptr %3) #7
  %7 = load ptr, ptr %2, align 8, !tbaa !25
  %8 = getelementptr inbounds nuw %struct._PyRawMutex, ptr %7, i32 0, i32 0
  %9 = call i64 @_Py_atomic_load_uintptr(ptr noundef %8)
  store i64 %9, ptr %3, align 8, !tbaa !9
  br label %10

10:                                               ; preds = %48, %1
  %11 = load i64, ptr %3, align 8, !tbaa !9
  %12 = and i64 %11, 1
  %13 = icmp eq i64 %12, 0
  br i1 %13, label %14, label %15

14:                                               ; preds = %10
  call void @_Py_FatalErrorFunc(ptr noundef @__func__._PyRawMutex_UnlockSlow, ptr noundef @.str) #8
  unreachable

15:                                               ; preds = %10
  call void @llvm.lifetime.start.p0(i64 8, ptr %4) #7
  %16 = load i64, ptr %3, align 8, !tbaa !9
  %17 = and i64 %16, -2
  %18 = inttoptr i64 %17 to ptr
  store ptr %18, ptr %4, align 8, !tbaa !32
  %19 = load ptr, ptr %4, align 8, !tbaa !32
  %20 = icmp ne ptr %19, null
  br i1 %20, label %21, label %38

21:                                               ; preds = %15
  call void @llvm.lifetime.start.p0(i64 8, ptr %5) #7
  %22 = load ptr, ptr %4, align 8, !tbaa !32
  %23 = getelementptr inbounds nuw %struct.raw_mutex_entry, ptr %22, i32 0, i32 0
  %24 = load ptr, ptr %23, align 8, !tbaa !26
  %25 = ptrtoint ptr %24 to i64
  store i64 %25, ptr %5, align 8, !tbaa !9
  %26 = load ptr, ptr %2, align 8, !tbaa !25
  %27 = getelementptr inbounds nuw %struct._PyRawMutex, ptr %26, i32 0, i32 0
  %28 = load i64, ptr %5, align 8, !tbaa !9
  %29 = call i32 @_Py_atomic_compare_exchange_uintptr(ptr noundef %27, ptr noundef %3, i64 noundef %28)
  %30 = icmp ne i32 %29, 0
  br i1 %30, label %31, label %34

31:                                               ; preds = %21
  %32 = load ptr, ptr %4, align 8, !tbaa !32
  %33 = getelementptr inbounds nuw %struct.raw_mutex_entry, ptr %32, i32 0, i32 1
  call void @_PySemaphore_Wakeup(ptr noundef %33)
  store i32 1, ptr %6, align 4
  br label %35

34:                                               ; preds = %21
  store i32 0, ptr %6, align 4
  br label %35

35:                                               ; preds = %34, %31
  call void @llvm.lifetime.end.p0(i64 8, ptr %5) #7
  %36 = load i32, ptr %6, align 4
  switch i32 %36, label %46 [
    i32 0, label %37
  ]

37:                                               ; preds = %35
  br label %45

38:                                               ; preds = %15
  %39 = load ptr, ptr %2, align 8, !tbaa !25
  %40 = getelementptr inbounds nuw %struct._PyRawMutex, ptr %39, i32 0, i32 0
  %41 = call i32 @_Py_atomic_compare_exchange_uintptr(ptr noundef %40, ptr noundef %3, i64 noundef 0)
  %42 = icmp ne i32 %41, 0
  br i1 %42, label %43, label %44

43:                                               ; preds = %38
  store i32 1, ptr %6, align 4
  br label %46

44:                                               ; preds = %38
  br label %45

45:                                               ; preds = %44, %37
  store i32 0, ptr %6, align 4
  br label %46

46:                                               ; preds = %45, %43, %35
  call void @llvm.lifetime.end.p0(i64 8, ptr %4) #7
  %47 = load i32, ptr %6, align 4
  switch i32 %47, label %49 [
    i32 0, label %48
  ]

48:                                               ; preds = %46
  br label %10

49:                                               ; preds = %46
  call void @llvm.lifetime.end.p0(i64 8, ptr %3) #7
  ret void
}