; Function Attrs: nounwind uwtable
define hidden void @_PyRawMutex_UnlockSlow(ptr noundef captures(none) %0) local_unnamed_addr #0 {
  %2 = load atomic i64, ptr %0 seq_cst, align 8
  %3 = and i64 %2, 1
  %4 = icmp eq i64 %3, 0
  br i1 %4, label %._crit_edge, label %.lr.ph

._crit_edge:                                      ; preds = %.critedge, %1
  tail call void @_Py_FatalErrorFunc(ptr noundef nonnull @__func__._PyRawMutex_UnlockSlow, ptr noundef nonnull @.str) #9
  unreachable

.lr.ph:                                           ; preds = %1, %.critedge
  %.022 = phi i64 [ %.1, %.critedge ], [ %2, %1 ]
  %5 = and i64 %.022, -2
  %.not = icmp eq i64 %5, 0
  br i1 %.not, label %14, label %6

6:                                                ; preds = %.lr.ph
  %7 = inttoptr i64 %5 to ptr
  %8 = load ptr, ptr %7, align 8, !tbaa !13
  %9 = ptrtoint ptr %8 to i64
  %10 = cmpxchg ptr %0, i64 %.022, i64 %9 seq_cst seq_cst, align 8
  %11 = extractvalue { i64, i1 } %10, 1
  br i1 %11, label %12, label %.critedge

12:                                               ; preds = %6
  %13 = getelementptr inbounds nuw i8, ptr %7, i64 8
  tail call void @_PySemaphore_Wakeup(ptr noundef nonnull %13) #8
  br label %_Py_atomic_compare_exchange_uintptr.exit14

14:                                               ; preds = %.lr.ph
  %15 = cmpxchg ptr %0, i64 %.022, i64 0 seq_cst seq_cst, align 8
  %16 = extractvalue { i64, i1 } %15, 1
  br i1 %16, label %_Py_atomic_compare_exchange_uintptr.exit14, label %.critedge

.critedge:                                        ; preds = %14, %6
  %.pn = phi { i64, i1 } [ %10, %6 ], [ %15, %14 ]
  %.1 = extractvalue { i64, i1 } %.pn, 0
  %17 = and i64 %.1, 1
  %18 = icmp eq i64 %17, 0
  br i1 %18, label %._crit_edge, label %.lr.ph

_Py_atomic_compare_exchange_uintptr.exit14:       ; preds = %14, %12
  ret void
}